; ModuleID = 'source-C-CXX/32/2972.c'
source_filename = "source-C-CXX/32/2972.c"
target datalayout = "e-m:e-p270:32:32-p271:32:32-p272:64:64-i64:64-f80:128-n8:16:32:64-S128"
target triple = "x86_64-pc-linux-gnu"

@.str = private unnamed_addr constant [3 x i8] c"%d\00", align 1
@.str.1 = private unnamed_addr constant [3 x i8] c"%s\00", align 1

; Function Attrs: nofree nounwind sspstrong uwtable
define dso_local i32 @main() local_unnamed_addr #0 {
  %1 = alloca [256 x i8], align 16
  %2 = alloca i32, align 4
  %3 = getelementptr inbounds [256 x i8], [256 x i8]* %1, i64 0, i64 0
  call void @llvm.lifetime.start.p0i8(i64 256, i8* nonnull %3) #5
  %4 = bitcast i32* %2 to i8*
  call void @llvm.lifetime.start.p0i8(i64 4, i8* nonnull %4) #5
  %5 = call i32 (i8*, ...) @__isoc99_scanf(i8* getelementptr inbounds ([3 x i8], [3 x i8]* @.str, i64 0, i64 0), i32* nonnull %2)
  %6 = load i32, i32* %2, align 4, !tbaa !5
  %7 = icmp sgt i32 %6, 0
  br i1 %7, label %9, label %8

8:                                                ; preds = %14, %0
  call void @llvm.lifetime.end.p0i8(i64 4, i8* nonnull %4) #5
  call void @llvm.lifetime.end.p0i8(i64 256, i8* nonnull %3) #5
  ret i32 0

9:                                                ; preds = %0, %14
  %10 = phi i32 [ %16, %14 ], [ 0, %0 ]
  %11 = call i32 (i8*, ...) @__isoc99_scanf(i8* getelementptr inbounds ([3 x i8], [3 x i8]* @.str.1, i64 0, i64 0), i8* nonnull %3)
  %12 = load i8, i8* %3, align 16
  %13 = icmp eq i8 %12, 0
  br i1 %13, label %14, label %19

14:                                               ; preds = %29, %9
  %15 = call i32 @puts(i8* nonnull %3)
  %16 = add nuw nsw i32 %10, 1
  %17 = load i32, i32* %2, align 4, !tbaa !5
  %18 = icmp slt i32 %16, %17
  br i1 %18, label %9, label %8, !llvm.loop !9

19:                                               ; preds = %9, %33
  %20 = phi i8 [ %35, %33 ], [ %12, %9 ]
  %21 = phi i64 [ %30, %33 ], [ 0, %9 ]
  %22 = getelementptr inbounds [256 x i8], [256 x i8]* %1, i64 0, i64 %21
  %23 = sext i8 %20 to i32
  switch i32 %23, label %29 [
    i32 65, label %27
    i32 84, label %24
    i32 71, label %25
    i32 67, label %26
  ]

24:                                               ; preds = %19
  br label %27

25:                                               ; preds = %19
  br label %27

26:                                               ; preds = %19
  br label %27

27:                                               ; preds = %19, %26, %25, %24
  %28 = phi i8 [ 65, %24 ], [ 67, %25 ], [ 71, %26 ], [ 84, %19 ]
  store i8 %28, i8* %22, align 1, !tbaa !11
  br label %29

29:                                               ; preds = %27, %19
  %30 = add nuw nsw i64 %21, 1
  %31 = call i64 @strlen(i8* noundef nonnull %3) #6
  %32 = icmp ugt i64 %31, %30
  br i1 %32, label %33, label %14, !llvm.loop !12

33:                                               ; preds = %29
  %34 = getelementptr inbounds [256 x i8], [256 x i8]* %1, i64 0, i64 %30
  %35 = load i8, i8* %34, align 1, !tbaa !11
  br label %19
}

; Function Attrs: argmemonly mustprogress nofree nosync nounwind willreturn
declare void @llvm.lifetime.start.p0i8(i64 immarg, i8* nocapture) #1

; Function Attrs: nofree nounwind
declare noundef i32 @__isoc99_scanf(i8* nocapture noundef readonly, ...) local_unnamed_addr #2

; Function Attrs: argmemonly mustprogress nofree nounwind readonly willreturn
declare i64 @strlen(i8* nocapture) local_unnamed_addr #3

; Function Attrs: argmemonly mustprogress nofree nosync nounwind willreturn
declare void @llvm.lifetime.end.p0i8(i64 immarg, i8* nocapture) #1

; Function Attrs: nofree nounwind
declare noundef i32 @puts(i8* nocapture noundef readonly) local_unnamed_addr #4


!llvm.module.flags = !{!0, !1, !2, !3}
!llvm.ident = !{!4}

!0 = !{i32 1, !"wchar_size", i32 4}
!1 = !{i32 7, !"PIC Level", i32 2}
!2 = !{i32 7, !"PIE Level", i32 2}
!3 = !{i32 7, !"uwtable", i32 1}
!4 = !{!"clang version 13.0.0"}
!5 = !{!6, !6, i64 0}
!6 = !{!"int", !7, i64 0}
!7 = !{!"omnipotent char", !8, i64 0}
!8 = !{!"Simple C/C++ TBAA"}
!9 = distinct !{!9, !10}
!10 = !{!"llvm.loop.mustprogress"}
!11 = !{!7, !7, i64 0}
!12 = distinct !{!12, !10}
